	.file	"i2c_peripheral.c"
__SP_H__ = 0x3e
__SP_L__ = 0x3d
__SREG__ = 0x3f
__tmp_reg__ = 0
__zero_reg__ = 1
	.text
.Ltext0:
	.cfi_sections	.debug_frame
	.section	.text.i2c_setCallbacks,"ax",@progbits
.global	i2c_setCallbacks
	.type	i2c_setCallbacks, @function
i2c_setCallbacks:
.LVL0:
.LFB1:
	.file 1 "i2c_peripheral.c"
	.loc 1 13 1 view -0
	.cfi_startproc
/* prologue: function */
/* frame size = 0 */
/* stack size = 0 */
.L__stack_usage = 0
	.loc 1 14 3 view .LVU1
	.loc 1 14 12 is_stmt 0 view .LVU2
	sts i2c_recv+1,r25
	sts i2c_recv,r24
	.loc 1 15 3 is_stmt 1 view .LVU3
	.loc 1 15 11 is_stmt 0 view .LVU4
	sts i2c_req+1,r23
	sts i2c_req,r22
/* epilogue start */
	.loc 1 16 1 view .LVU5
	ret
	.cfi_endproc
.LFE1:
	.size	i2c_setCallbacks, .-i2c_setCallbacks
	.section	.text.i2c_init,"ax",@progbits
.global	i2c_init
	.type	i2c_init, @function
i2c_init:
.LVL1:
.LFB2:
	.loc 1 19 1 is_stmt 1 view -0
	.cfi_startproc
/* prologue: function */
/* frame size = 0 */
/* stack size = 0 */
.L__stack_usage = 0
	.loc 1 20 2 view .LVU7
/* #APP */
 ;  20 "i2c_peripheral.c" 1
	cli
 ;  0 "" 2
	.loc 1 22 2 view .LVU8
	.loc 1 22 17 is_stmt 0 view .LVU9
/* #NOAPP */
	lsl r24
.LVL2:
	.loc 1 22 7 view .LVU10
	sts 186,r24
	.loc 1 24 2 is_stmt 1 view .LVU11
	.loc 1 24 7 is_stmt 0 view .LVU12
	ldi r24,lo8(-59)
	sts 188,r24
	.loc 1 25 2 is_stmt 1 view .LVU13
/* #APP */
 ;  25 "i2c_peripheral.c" 1
	sei
 ;  0 "" 2
/* #NOAPP */
/* epilogue start */
	.loc 1 26 1 is_stmt 0 view .LVU14
	ret
	.cfi_endproc
.LFE2:
	.size	i2c_init, .-i2c_init
	.section	.text.i2c_stop,"ax",@progbits
.global	i2c_stop
	.type	i2c_stop, @function
i2c_stop:
.LFB3:
	.loc 1 29 1 is_stmt 1 view -0
	.cfi_startproc
/* prologue: function */
/* frame size = 0 */
/* stack size = 0 */
.L__stack_usage = 0
	.loc 1 31 2 view .LVU16
/* #APP */
 ;  31 "i2c_peripheral.c" 1
	cli
 ;  0 "" 2
	.loc 1 32 2 view .LVU17
	.loc 1 32 7 is_stmt 0 view .LVU18
/* #NOAPP */
	sts 188,__zero_reg__
	.loc 1 33 2 is_stmt 1 view .LVU19
	.loc 1 33 7 is_stmt 0 view .LVU20
	sts 186,__zero_reg__
	.loc 1 34 2 is_stmt 1 view .LVU21
/* #APP */
 ;  34 "i2c_peripheral.c" 1
	sei
 ;  0 "" 2
/* #NOAPP */
/* epilogue start */
	.loc 1 35 1 is_stmt 0 view .LVU22
	ret
	.cfi_endproc
.LFE3:
	.size	i2c_stop, .-i2c_stop
	.section	.text.__vector_26,"ax",@progbits
.global	__vector_26
	.type	__vector_26, @function
__vector_26:
.LFB4:
	.loc 1 38 1 is_stmt 1 view -0
	.cfi_startproc
	push r1
	.cfi_def_cfa_offset 3
	.cfi_offset 1, -2
	push r0
	.cfi_def_cfa_offset 4
	.cfi_offset 0, -3
	in r0,__SREG__
	push r0
	clr __zero_reg__
	push r18
	.cfi_def_cfa_offset 5
	.cfi_offset 18, -4
	push r19
	.cfi_def_cfa_offset 6
	.cfi_offset 19, -5
	push r20
	.cfi_def_cfa_offset 7
	.cfi_offset 20, -6
	push r21
	.cfi_def_cfa_offset 8
	.cfi_offset 21, -7
	push r22
	.cfi_def_cfa_offset 9
	.cfi_offset 22, -8
	push r23
	.cfi_def_cfa_offset 10
	.cfi_offset 23, -9
	push r24
	.cfi_def_cfa_offset 11
	.cfi_offset 24, -10
	push r25
	.cfi_def_cfa_offset 12
	.cfi_offset 25, -11
	push r26
	.cfi_def_cfa_offset 13
	.cfi_offset 26, -12
	push r27
	.cfi_def_cfa_offset 14
	.cfi_offset 27, -13
	push r30
	.cfi_def_cfa_offset 15
	.cfi_offset 30, -14
	push r31
	.cfi_def_cfa_offset 16
	.cfi_offset 31, -15
/* prologue: Signal */
/* frame size = 0 */
/* stack size = 15 */
.L__stack_usage = 15
	.loc 1 39 3 view .LVU24
	.loc 1 39 11 is_stmt 0 view .LVU25
	lds r24,185
	andi r24,lo8(-8)
	.loc 1 39 3 view .LVU26
	cpi r24,lo8(-128)
	breq .L5
	brsh .L6
	tst r24
	breq .L7
	cpi r24,lo8(96)
	breq .L8
.L9:
	.loc 1 68 6 is_stmt 1 view .LVU27
	.loc 1 68 11 is_stmt 0 view .LVU28
	ldi r24,lo8(-59)
	sts 188,r24
	.loc 1 69 7 is_stmt 1 view .LVU29
/* epilogue start */
	.loc 1 71 1 is_stmt 0 view .LVU30
	pop r31
	pop r30
	pop r27
	pop r26
	pop r25
	pop r24
	pop r23
	pop r22
	pop r21
	pop r20
	pop r19
	pop r18
	pop r0
	out __SREG__,r0
	pop r0
	pop r1
	reti
.L6:
	.loc 1 39 3 view .LVU31
	cpi r24,lo8(-88)
	breq .L10
	cpi r24,lo8(-72)
	brne .L9
.L11:
	.loc 1 59 7 is_stmt 1 view .LVU32
	lds r30,i2c_req
	lds r31,i2c_req+1
	icall
.LVL3:
	.loc 1 60 6 view .LVU33
	rjmp .L9
.L8:
	.loc 1 43 7 view .LVU34
	.loc 1 43 22 is_stmt 0 view .LVU35
	sts i2c_recv_index,__zero_reg__
	.loc 1 44 6 is_stmt 1 view .LVU36
	rjmp .L9
.L5:
	.loc 1 48 7 view .LVU37
	lds r24,187
	lds r30,i2c_recv
	lds r31,i2c_recv+1
	icall
.LVL4:
	.loc 1 49 6 view .LVU38
	rjmp .L9
.L10:
	.loc 1 53 7 view .LVU39
	.loc 1 53 22 is_stmt 0 view .LVU40
	sts i2c_send_index,__zero_reg__
	.loc 1 54 7 is_stmt 1 view .LVU41
	rjmp .L11
.L7:
	.loc 1 64 6 view .LVU42
	.loc 1 64 11 is_stmt 0 view .LVU43
	sts 188,__zero_reg__
	.loc 1 65 6 is_stmt 1 view .LVU44
	rjmp .L9
	.cfi_endproc
.LFE4:
	.size	__vector_26, .-__vector_26
	.section	.bss.i2c_req,"aw",@nobits
	.type	i2c_req, @object
	.size	i2c_req, 2
i2c_req:
	.zero	2
	.section	.bss.i2c_recv,"aw",@nobits
	.type	i2c_recv, @object
	.size	i2c_recv, 2
i2c_recv:
	.zero	2
.global	i2c_send_index
	.section	.bss.i2c_send_index,"aw",@nobits
	.type	i2c_send_index, @object
	.size	i2c_send_index, 1
i2c_send_index:
	.zero	1
.global	i2c_recv_index
	.section	.bss.i2c_recv_index,"aw",@nobits
	.type	i2c_recv_index, @object
	.size	i2c_recv_index, 1
i2c_recv_index:
	.zero	1
	.text
.Letext0:
	.file 2 "/usr/local/Cellar/avr-gcc@9/9.3.0_3/avr/include/stdint.h"