	.file	"apa102.c"
__SP_H__ = 0x3e
__SP_L__ = 0x3d
__SREG__ = 0x3f
__tmp_reg__ = 0
__zero_reg__ = 1
	.text
.Ltext0:
	.cfi_sections	.debug_frame
	.section	.text.apa102_init,"ax",@progbits
.global	apa102_init
	.type	apa102_init, @function
apa102_init:
.LFB0:
	.file 1 "apa102.c"
	.loc 1 16 24 view -0
	.cfi_startproc
/* prologue: function */
/* frame size = 0 */
/* stack size = 0 */
.L__stack_usage = 0
	.loc 1 19 4 view .LVU1
	.loc 1 19 11 is_stmt 0 view .LVU2
	sbi 0x4,4
	.loc 1 20 4 is_stmt 1 view .LVU3
	.loc 1 20 12 is_stmt 0 view .LVU4
	sbi 0x5,4
	.loc 1 23 4 is_stmt 1 view .LVU5
	.loc 1 23 13 is_stmt 0 view .LVU6
	sbi 0x4,5
	.loc 1 24 4 is_stmt 1 view .LVU7
	.loc 1 24 12 is_stmt 0 view .LVU8
	sbi 0x4,7
	.loc 1 27 4 is_stmt 1 view .LVU9
	.loc 1 27 14 is_stmt 0 view .LVU10
	sbi 0x5,5
	.loc 1 30 4 is_stmt 1 view .LVU11
	.loc 1 30 9 is_stmt 0 view .LVU12
	in r24,0x2c
	ori r24,lo8(64)
	out 0x2c,r24
	.loc 1 33 4 is_stmt 1 view .LVU13
	.loc 1 33 9 is_stmt 0 view .LVU14
	in r24,0x2c
	ori r24,lo8(16)
	out 0x2c,r24
	.loc 1 36 4 is_stmt 1 view .LVU15
	.loc 1 36 9 is_stmt 0 view .LVU16
	in r24,0x2c
	ori r24,lo8(12)
	out 0x2c,r24
	.loc 1 39 4 is_stmt 1 view .LVU17
	.loc 1 39 9 is_stmt 0 view .LVU18
	in r24,0x2d
	ori r24,lo8(1)
	out 0x2d,r24
	.loc 1 40 4 is_stmt 1 view .LVU19
	.loc 1 40 9 is_stmt 0 view .LVU20
	in r24,0x2c
	ori r24,lo8(3)
	out 0x2c,r24
/* epilogue start */
	.loc 1 41 1 view .LVU21
	ret
	.cfi_endproc
.LFE0:
	.size	apa102_init, .-apa102_init
	.section	.text.apa102_transmit_byte,"ax",@progbits
.global	apa102_transmit_byte
	.type	apa102_transmit_byte, @function
apa102_transmit_byte:
.LVL0:
.LFB1:
	.loc 1 43 41 is_stmt 1 view -0
	.cfi_startproc
/* prologue: function */
/* frame size = 0 */
/* stack size = 0 */
.L__stack_usage = 0
	.loc 1 44 4 view .LVU23
	.loc 1 44 9 is_stmt 0 view .LVU24
	out 0x2e,r24
	.loc 1 45 5 is_stmt 1 view .LVU25
.L3:
	.loc 1 45 35 discriminator 1 view .LVU26
	.loc 1 45 11 discriminator 1 view .LVU27
	in __tmp_reg__,0x2d
	sbrs __tmp_reg__,7
	rjmp .L3
/* epilogue start */
	.loc 1 46 1 is_stmt 0 view .LVU28
	ret
	.cfi_endproc
.LFE1:
	.size	apa102_transmit_byte, .-apa102_transmit_byte
	.section	.text.apa102_start,"ax",@progbits
.global	apa102_start
	.type	apa102_start, @function
apa102_start:
.LFB2:
	.loc 1 48 25 is_stmt 1 view -0
	.cfi_startproc
/* prologue: function */
/* frame size = 0 */
/* stack size = 0 */
.L__stack_usage = 0
	.loc 1 49 5 view .LVU30
.LBB2:
	.loc 1 49 10 view .LVU31
.LVL1:
	.loc 1 49 25 view .LVU32
	.loc 1 50 9 view .LVU33
	ldi r24,0
	call apa102_transmit_byte
.LVL2:
	.loc 1 49 32 view .LVU34
	.loc 1 49 25 view .LVU35
	.loc 1 50 9 view .LVU36
	ldi r24,0
	call apa102_transmit_byte
.LVL3:
	.loc 1 49 32 view .LVU37
	.loc 1 49 25 view .LVU38
	.loc 1 50 9 view .LVU39
	ldi r24,0
	call apa102_transmit_byte
.LVL4:
	.loc 1 49 32 view .LVU40
	.loc 1 49 25 view .LVU41
	.loc 1 50 9 view .LVU42
	ldi r24,0
	jmp apa102_transmit_byte
.LVL5:
.LBE2:
	.cfi_endproc
.LFE2:
	.size	apa102_start, .-apa102_start
	.section	.text.apa102_end,"ax",@progbits
.global	apa102_end
	.type	apa102_end, @function
apa102_end:
.LFB3:
	.loc 1 56 23 view -0
	.cfi_startproc
/* prologue: function */
/* frame size = 0 */
/* stack size = 0 */
.L__stack_usage = 0
	.loc 1 57 5 view .LVU44
.LVL6:
	.loc 1 58 5 view .LVU45
	.loc 1 59 5 view .LVU46
.LBB3:
	.loc 1 59 10 view .LVU47
	.loc 1 59 25 view .LVU48
	.loc 1 60 9 view .LVU49
	ldi r24,lo8(-1)
	jmp apa102_transmit_byte
.LVL7:
.LBE3:
	.cfi_endproc
.LFE3:
	.size	apa102_end, .-apa102_end
	.section	.text.apa102_set_led,"ax",@progbits
.global	apa102_set_led
	.type	apa102_set_led, @function
apa102_set_led:
.LVL8:
.LFB4:
	.loc 1 65 54 view -0
	.cfi_startproc
	.loc 1 65 54 is_stmt 0 view .LVU51
	push r17
	.cfi_def_cfa_offset 3
	.cfi_offset 17, -2
	push r28
	.cfi_def_cfa_offset 4
	.cfi_offset 28, -3
	push r29
	.cfi_def_cfa_offset 5
	.cfi_offset 29, -4
/* prologue: function */
/* frame size = 0 */
/* stack size = 3 */
.L__stack_usage = 3
	mov r17,r24
	mov r29,r22
	mov r28,r20
	.loc 1 66 5 is_stmt 1 view .LVU52
	ldi r24,lo8(-1)
.LVL9:
	.loc 1 66 5 is_stmt 0 view .LVU53
	call apa102_transmit_byte
.LVL10:
	.loc 1 67 5 is_stmt 1 view .LVU54
	mov r24,r17
	call apa102_transmit_byte
.LVL11:
	.loc 1 68 5 view .LVU55
	mov r24,r29
	call apa102_transmit_byte
.LVL12:
	.loc 1 69 5 view .LVU56
	mov r24,r28
/* epilogue start */
	.loc 1 70 1 is_stmt 0 view .LVU57
	pop r29
.LVL13:
	.loc 1 70 1 view .LVU58
	pop r28
.LVL14:
	.loc 1 70 1 view .LVU59
	pop r17
.LVL15:
	.loc 1 69 5 view .LVU60
	jmp apa102_transmit_byte
.LVL16:
	.loc 1 69 5 view .LVU61
	.cfi_endproc
.LFE4:
	.size	apa102_set_led, .-apa102_set_led
	.section	.text.apa102_set_all_leds,"ax",@progbits
.global	apa102_set_all_leds
	.type	apa102_set_all_leds, @function
apa102_set_all_leds:
.LVL17:
.LFB5:
	.loc 1 73 59 is_stmt 1 view -0
	.cfi_startproc
	.loc 1 73 59 is_stmt 0 view .LVU63
	push r17
	.cfi_def_cfa_offset 3
	.cfi_offset 17, -2
	push r28
	.cfi_def_cfa_offset 4
	.cfi_offset 28, -3
	push r29
	.cfi_def_cfa_offset 5
	.cfi_offset 29, -4
/* prologue: function */
/* frame size = 0 */
/* stack size = 3 */
.L__stack_usage = 3
	mov r28,r24
	mov r29,r22
	mov r17,r20
	.loc 1 74 5 is_stmt 1 view .LVU64
	call apa102_start
.LVL18:
	.loc 1 75 5 view .LVU65
.LBB4:
	.loc 1 75 10 view .LVU66
	.loc 1 75 25 view .LVU67
	.loc 1 76 9 view .LVU68
	mov r20,r17
	mov r22,r29
	mov r24,r28
	call apa102_set_led
.LVL19:
	.loc 1 75 32 view .LVU69
	.loc 1 75 25 view .LVU70
	.loc 1 76 9 view .LVU71
	mov r20,r17
	mov r22,r29
	mov r24,r28
	call apa102_set_led
.LVL20:
	.loc 1 75 32 view .LVU72
	.loc 1 75 25 view .LVU73
	.loc 1 76 9 view .LVU74
	mov r20,r17
	mov r22,r29
	mov r24,r28
	call apa102_set_led
.LVL21:
	.loc 1 75 32 view .LVU75
	.loc 1 75 25 view .LVU76
.LBE4:
	.loc 1 78 5 view .LVU77
/* epilogue start */
	.loc 1 79 1 is_stmt 0 view .LVU78
	pop r29
.LVL22:
	.loc 1 79 1 view .LVU79
	pop r28
.LVL23:
	.loc 1 79 1 view .LVU80
	pop r17
.LVL24:
	.loc 1 78 5 view .LVU81
	jmp apa102_end
.LVL25:
	.cfi_endproc
.LFE5:
	.size	apa102_set_all_leds, .-apa102_set_all_leds
	.text
.Letext0:
	.file 2 "/usr/local/Cellar/avr-gcc@9/9.3.0_3/avr/include/stdint.h"